target datalayout = "e-m:e-p270:32:32-p271:32:32-p272:64:64-i64:64-i128:128-f80:128-n8:16:32:64-S128"
target triple = "x86_64-pc-linux-gnu"

%"class.std::__cxx11::basic_string" = type { %"struct.std::__cxx11::basic_string<char>::_Alloc_hider", i64, %union.anon }
%"struct.std::__cxx11::basic_string<char>::_Alloc_hider" = type { ptr }
%union.anon = type { i64, [8 x i8] }
%struct.pull_params_t = type { i32, i32, float, float, i8, i8, i8, i8, i32, i32, i8, i8, %"class.std::vector.115", %"class.std::vector.120" }
%"class.std::vector.115" = type { %"struct.std::_Vector_base.116" }
%"struct.std::_Vector_base.116" = type { %"struct.std::_Vector_base<t_pull_group, std::allocator<t_pull_group>>::_Vector_impl" }
%"struct.std::_Vector_base<t_pull_group, std::allocator<t_pull_group>>::_Vector_impl" = type { %"struct.std::_Vector_base<t_pull_group, std::allocator<t_pull_group>>::_Vector_impl_data" }
%"struct.std::_Vector_base<t_pull_group, std::allocator<t_pull_group>>::_Vector_impl_data" = type { ptr, ptr, ptr }
%"class.std::vector.120" = type { %"struct.std::_Vector_base.121" }
%"struct.std::_Vector_base.121" = type { %"struct.std::_Vector_base<t_pull_coord, std::allocator<t_pull_coord>>::_Vector_impl" }
%"struct.std::_Vector_base<t_pull_coord, std::allocator<t_pull_coord>>::_Vector_impl" = type { %"struct.std::_Vector_base<t_pull_coord, std::allocator<t_pull_coord>>::_Vector_impl_data" }
%"struct.std::_Vector_base<t_pull_coord, std::allocator<t_pull_coord>>::_Vector_impl_data" = type { ptr, ptr, ptr }
%struct.t_pull_coord = type { i32, %"class.std::__cxx11::basic_string", i32, %"class.std::__cxx11::basic_string", double, i32, %"struct.std::array", %"class.gmx::BasicVector", %"class.gmx::BasicVector.125", %"class.gmx::BasicVector.125", i8, float, float, float, float, i32 }
%"struct.std::array" = type { [6 x i32] }
%"class.gmx::BasicVector" = type { [3 x i32] }
%"class.gmx::BasicVector.125" = type { [3 x float] }

@.str.526 = private unnamed_addr constant [25 x i8] c"comparing pull coord %d\0A\00", align 1
@.str.527 = private unnamed_addr constant [14 x i8] c"pull-coord->k\00", align 1

; Function Attrs: mustprogress nounwind uwtable
define linkonce_odr noundef nonnull align 8 dereferenceable(176) ptr @_ZNKSt6vectorI12t_pull_coordSaIS0_EEixEm(ptr noundef nonnull align 8 dereferenceable(24) %0, i64 noundef %1) #2 comdat align 2 {
  %3 = alloca ptr, align 8
  %4 = alloca i64, align 8
  store ptr %0, ptr %3, align 8, !tbaa !667
  store i64 %1, ptr %4, align 8, !tbaa !21
  %5 = load ptr, ptr %3, align 8
  %6 = getelementptr inbounds nuw %"struct.std::_Vector_base.121", ptr %5, i32 0, i32 0
  %7 = getelementptr inbounds nuw %"struct.std::_Vector_base<t_pull_coord, std::allocator<t_pull_coord>>::_Vector_impl_data", ptr %6, i32 0, i32 0
  %8 = load ptr, ptr %7, align 8, !tbaa !669
  %9 = load i64, ptr %4, align 8, !tbaa !21
  %10 = getelementptr inbounds nuw %struct.t_pull_coord, ptr %8, i64 %9
  ret ptr %10
}

; Function Attrs: mustprogress uwtable
define void @_Z12comp_pull_ABP8_IO_FILERK13pull_params_tff(ptr noundef %0, ptr noundef nonnull align 8 dereferenceable(80) %1, float noundef %2, float noundef %3) #3 {
  %5 = alloca ptr, align 8
  %6 = alloca ptr, align 8
  %7 = alloca float, align 4
  %8 = alloca float, align 4
  %9 = alloca i32, align 4
  store ptr %0, ptr %5, align 8, !tbaa !791
  store ptr %1, ptr %6, align 8, !tbaa !549
  store float %2, ptr %7, align 4, !tbaa !213
  store float %3, ptr %8, align 4, !tbaa !213
  call void @llvm.lifetime.start.p0(i64 4, ptr %9) #5
  store i32 0, ptr %9, align 4, !tbaa !212
  br label %10

10:                                               ; preds = %38, %4
  %11 = load i32, ptr %9, align 4, !tbaa !212
  %12 = load ptr, ptr %6, align 8, !tbaa !549
  %13 = getelementptr inbounds nuw %struct.pull_params_t, ptr %12, i32 0, i32 1
  %14 = load i32, ptr %13, align 4, !tbaa !829
  %15 = icmp slt i32 %11, %14
  br i1 %15, label %17, label %16

16:                                               ; preds = %10
  call void @llvm.lifetime.end.p0(i64 4, ptr %9) #5
  br label %41

17:                                               ; preds = %10
  %18 = load ptr, ptr %5, align 8, !tbaa !791
  %19 = load i32, ptr %9, align 4, !tbaa !212
  %20 = call i32 (ptr, ptr, ...) @fprintf(ptr noundef %18, ptr noundef @.str.526, i32 noundef %19) #5
  %21 = load ptr, ptr %5, align 8, !tbaa !791
  %22 = load ptr, ptr %6, align 8, !tbaa !549
  %23 = getelementptr inbounds nuw %struct.pull_params_t, ptr %22, i32 0, i32 13
  %24 = load i32, ptr %9, align 4, !tbaa !212
  %25 = sext i32 %24 to i64
  %26 = call noundef nonnull align 8 dereferenceable(176) ptr @_ZNKSt6vectorI12t_pull_coordSaIS0_EEixEm(ptr noundef nonnull align 8 dereferenceable(24) %23, i64 noundef %25) #5
  %27 = getelementptr inbounds nuw %struct.t_pull_coord, ptr %26, i32 0, i32 13
  %28 = load float, ptr %27, align 4, !tbaa !910
  %29 = load ptr, ptr %6, align 8, !tbaa !549
  %30 = getelementptr inbounds nuw %struct.pull_params_t, ptr %29, i32 0, i32 13
  %31 = load i32, ptr %9, align 4, !tbaa !212
  %32 = sext i32 %31 to i64
  %33 = call noundef nonnull align 8 dereferenceable(176) ptr @_ZNKSt6vectorI12t_pull_coordSaIS0_EEixEm(ptr noundef nonnull align 8 dereferenceable(24) %30, i64 noundef %32) #5
  %34 = getelementptr inbounds nuw %struct.t_pull_coord, ptr %33, i32 0, i32 14
  %35 = load float, ptr %34, align 8, !tbaa !911
  %36 = load float, ptr %7, align 4, !tbaa !213
  %37 = load float, ptr %8, align 4, !tbaa !213
  call void @_Z8cmp_realP8_IO_FILEPKciffff(ptr noundef %21, ptr noundef @.str.527, i32 noundef -1, float noundef %28, float noundef %35, float noundef %36, float noundef %37)
  br label %38

38:                                               ; preds = %17
  %39 = load i32, ptr %9, align 4, !tbaa !212
  %40 = add nsw i32 %39, 1
  store i32 %40, ptr %9, align 4, !tbaa !212
  br label %10, !llvm.loop !1047

41:                                               ; preds = %16
  ret void
}