; Function Attrs: mustprogress uwtable
define void @_Z12comp_pull_ABP8_IO_FILERK13pull_params_tff(ptr noundef %0, ptr noundef nonnull readonly align 8 captures(none) dereferenceable(80) %1, float noundef %2, float noundef %3) local_unnamed_addr #1 {
  %5 = getelementptr inbounds nuw i8, ptr %1, i64 4
  %6 = load i32, ptr %5, align 4, !tbaa !369
  %7 = icmp sgt i32 %6, 0
  br i1 %7, label %.lr.ph, label %._crit_edge

.lr.ph:                                           ; preds = %4
  %8 = getelementptr inbounds nuw i8, ptr %1, i64 56
  br label %9

._crit_edge:                                      ; preds = %9, %4
  ret void

9:                                                ; preds = %.lr.ph, %9
  %indvars.iv = phi i64 [ 0, %.lr.ph ], [ %indvars.iv.next, %9 ]
  %10 = trunc nuw nsw i64 %indvars.iv to i32
  %11 = tail call i32 (ptr, ptr, ...) @fprintf(ptr noundef %0, ptr noundef nonnull @.str.526, i32 noundef %10) #24
  %12 = load ptr, ptr %8, align 8, !tbaa !225
  %13 = getelementptr inbounds nuw %struct.t_pull_coord, ptr %12, i64 %indvars.iv
  %14 = getelementptr inbounds nuw i8, ptr %13, i64 164
  %15 = load float, ptr %14, align 4, !tbaa !383
  %16 = getelementptr inbounds nuw i8, ptr %13, i64 168
  %17 = load float, ptr %16, align 8, !tbaa !384
  tail call void @_Z8cmp_realP8_IO_FILEPKciffff(ptr noundef %0, ptr noundef nonnull @.str.527, i32 noundef -1, float noundef %15, float noundef %17, float noundef %2, float noundef %3)
  %indvars.iv.next = add nuw nsw i64 %indvars.iv, 1
  %18 = load i32, ptr %5, align 4, !tbaa !369
  %19 = sext i32 %18 to i64
  %20 = icmp slt i64 %indvars.iv.next, %19
  br i1 %20, label %9, label %._crit_edge, !llvm.loop !579
}